; Function Attrs: mustprogress nofree norecurse nosync nounwind willreturn memory(read, inaccessiblemem: none) uwtable
define dso_local noundef zeroext i1 @_ZNK5clang7VarDecl15isParameterPackEv(ptr nocapture noundef nonnull readonly align 8 dereferenceable(100) %0) local_unnamed_addr #9 align 2 {
  %2 = getelementptr inbounds nuw i8, ptr %0, i64 48
  %.sroa.0.0.copyload.i = load i64, ptr %2, align 8
  %3 = and i64 %.sroa.0.0.copyload.i, -16
  %4 = inttoptr i64 %3 to ptr
  %5 = load ptr, ptr %4, align 16
  %6 = getelementptr inbounds nuw i8, ptr %5, i64 16
  %7 = load i8, ptr %6, align 16
  %8 = icmp eq i8 %7, 37
  ret i1 %8
}